target datalayout = "e-m:e-p270:32:32-p271:32:32-p272:64:64-i64:64-i128:128-f80:128-n8:16:32:64-S128"
target triple = "x86_64-pc-linux-gnu"

%struct.H5FL_fac_gc_list_t = type { i64, ptr }
%struct.H5FL_reg_head_t = type { i8, i32, i32, ptr, i64, ptr }
%struct.H5FL_fac_gc_node_t = type { ptr, ptr }
%struct.H5FL_fac_head_t = type { i8, i32, i32, i64, ptr, ptr }

@H5FL_init_g = global i8 0, align 1
@H5_H5FL_fac_head_t_reg_free_list = global { i8, [3 x i8], i32, i32, [4 x i8], ptr, i64, ptr } { i8 0, [3 x i8] zeroinitializer, i32 0, i32 0, [4 x i8] zeroinitializer, ptr @.str.1, i64 40, ptr null }, align 8
@H5_libterm_g = external global i8, align 1
@.str.2 = private unnamed_addr constant [98 x i8] c"generated/home/dtcxzyw/WorkSpace/Projects/compilers/llvm-opt-benchmark/bench/hdf5/hdf5/src/H5FL.c\00", align 1
@H5E_RESOURCE_g = external global i64, align 8
@H5E_NOSPACE_g = external global i64, align 8
@.str.5 = private unnamed_addr constant [25 x i8] c"memory allocation failed\00", align 1
@__func__.H5FL_reg_calloc = private unnamed_addr constant [16 x i8] c"H5FL_reg_calloc\00", align 1
@__func__.H5FL_fac_init = private unnamed_addr constant [14 x i8] c"H5FL_fac_init\00", align 1
@.str.11 = private unnamed_addr constant [44 x i8] c"memory allocation failed for factory object\00", align 1
@H5FL_fac_gc_head = internal global %struct.H5FL_fac_gc_list_t zeroinitializer, align 8
@H5_H5FL_fac_gc_node_t_reg_free_list = internal global { i8, [3 x i8], i32, i32, [4 x i8], ptr, i64, ptr } { i8 0, [3 x i8] zeroinitializer, i32 0, i32 0, [4 x i8] zeroinitializer, ptr @.str.21, i64 16, ptr null }, align 8

; Function Attrs: nounwind uwtable
define noalias ptr @H5FL_reg_calloc(ptr noundef %0) #0 {
  %2 = alloca ptr, align 8
  %3 = alloca ptr, align 8
  %4 = alloca i8, align 1
  store ptr %0, ptr %2, align 8, !tbaa !68
  call void @llvm.lifetime.start.p0(i64 8, ptr %3) #9
  store ptr null, ptr %3, align 8, !tbaa !69
  call void @llvm.lifetime.start.p0(i64 1, ptr %4) #9
  store i8 0, ptr %4, align 1, !tbaa !7
  %5 = load i8, ptr @H5FL_init_g, align 1, !tbaa !7, !range !9, !noundef !10
  %6 = trunc i8 %5 to i1
  br i1 %6, label %11, label %7

7:                                                ; preds = %1
  %8 = load i8, ptr @H5_libterm_g, align 1, !tbaa !7, !range !9, !noundef !10
  %9 = trunc i8 %8 to i1
  %10 = xor i1 %9, true
  br label %11

11:                                               ; preds = %7, %1
  %12 = phi i1 [ false, %1 ], [ %10, %7 ]
  %13 = xor i1 %12, true
  %14 = xor i1 %13, true
  %15 = zext i1 %14 to i32
  %16 = sext i32 %15 to i64
  %17 = call i64 @llvm.expect.i64(i64 %16, i64 0)
  %18 = icmp ne i64 %17, 0
  br i1 %18, label %19, label %20

19:                                               ; preds = %11
  store i8 1, ptr @H5FL_init_g, align 1, !tbaa !7
  br label %20

20:                                               ; preds = %19, %11
  %21 = load i8, ptr @H5FL_init_g, align 1, !tbaa !7, !range !9, !noundef !10
  %22 = trunc i8 %21 to i1
  br i1 %22, label %27, label %23

23:                                               ; preds = %20
  %24 = load i8, ptr @H5_libterm_g, align 1, !tbaa !7, !range !9, !noundef !10
  %25 = trunc i8 %24 to i1
  %26 = xor i1 %25, true
  br label %27

27:                                               ; preds = %23, %20
  %28 = phi i1 [ true, %20 ], [ %26, %23 ]
  %29 = xor i1 %28, true
  %30 = xor i1 %29, true
  %31 = zext i1 %30 to i32
  %32 = sext i32 %31 to i64
  %33 = call i64 @llvm.expect.i64(i64 %32, i64 1)
  %34 = icmp ne i64 %33, 0
  br i1 %34, label %35, label %64

35:                                               ; preds = %27
  %36 = load ptr, ptr %2, align 8, !tbaa !68
  %37 = call noalias ptr @H5FL_reg_malloc(ptr noundef %36)
  store ptr %37, ptr %3, align 8, !tbaa !69
  %38 = icmp eq ptr null, %37
  br i1 %38, label %39, label %58

39:                                               ; preds = %35
  br label %40

40:                                               ; preds = %39
  br label %41

41:                                               ; preds = %40
  br label %42

42:                                               ; preds = %41
  %43 = load i64, ptr @H5E_RESOURCE_g, align 8, !tbaa !11
  %44 = load i64, ptr @H5E_NOSPACE_g, align 8, !tbaa !11
  %45 = call i32 (ptr, ptr, i32, i64, i64, ptr, ...) @H5E_printf_stack(ptr noundef @.str.2, ptr noundef @__func__.H5FL_reg_calloc, i32 noundef 396, i64 noundef %43, i64 noundef %44, ptr noundef @.str.5)
  br label %46

46:                                               ; preds = %42
  br label %47

47:                                               ; preds = %46
  store i8 1, ptr %4, align 1, !tbaa !7
  %48 = load i8, ptr %4, align 1, !tbaa !7, !range !9, !noundef !10
  %49 = trunc i8 %48 to i1
  %50 = zext i1 %49 to i8
  store i8 %50, ptr %4, align 1, !tbaa !7
  br label %51

51:                                               ; preds = %47
  br label %52

52:                                               ; preds = %51
  br label %53

53:                                               ; preds = %52
  store ptr null, ptr %3, align 8, !tbaa !69
  br label %63

54:                                               ; No predecessors!
  br label %55

55:                                               ; preds = %54
  br label %56

56:                                               ; preds = %55
  br label %57

57:                                               ; preds = %56
  br label %58

58:                                               ; preds = %57, %35
  %59 = load ptr, ptr %3, align 8, !tbaa !69
  %60 = load ptr, ptr %2, align 8, !tbaa !68
  %61 = getelementptr inbounds nuw %struct.H5FL_reg_head_t, ptr %60, i32 0, i32 4
  %62 = load i64, ptr %61, align 8, !tbaa !74
  call void @llvm.memset.p0.i64(ptr align 1 %59, i8 0, i64 %62, i1 false)
  br label %63

63:                                               ; preds = %58, %53
  br label %64

64:                                               ; preds = %63, %27
  %65 = load ptr, ptr %3, align 8, !tbaa !69
  call void @llvm.lifetime.end.p0(i64 1, ptr %4) #9
  call void @llvm.lifetime.end.p0(i64 8, ptr %3) #9
  ret ptr %65
}

; Function Attrs: nounwind uwtable
define ptr @H5FL_fac_init(i64 noundef %0) #0 {
  %2 = alloca i64, align 8
  %3 = alloca ptr, align 8
  %4 = alloca ptr, align 8
  %5 = alloca ptr, align 8
  %6 = alloca i8, align 1
  store i64 %0, ptr %2, align 8, !tbaa !11
  call void @llvm.lifetime.start.p0(i64 8, ptr %3) #9
  store ptr null, ptr %3, align 8, !tbaa !35
  call void @llvm.lifetime.start.p0(i64 8, ptr %4) #9
  store ptr null, ptr %4, align 8, !tbaa !122
  call void @llvm.lifetime.start.p0(i64 8, ptr %5) #9
  store ptr null, ptr %5, align 8, !tbaa !122
  call void @llvm.lifetime.start.p0(i64 1, ptr %6) #9
  store i8 0, ptr %6, align 1, !tbaa !7
  %7 = load i8, ptr @H5FL_init_g, align 1, !tbaa !7, !range !9, !noundef !10
  %8 = trunc i8 %7 to i1
  br i1 %8, label %13, label %9

9:                                                ; preds = %1
  %10 = load i8, ptr @H5_libterm_g, align 1, !tbaa !7, !range !9, !noundef !10
  %11 = trunc i8 %10 to i1
  %12 = xor i1 %11, true
  br label %13

13:                                               ; preds = %9, %1
  %14 = phi i1 [ false, %1 ], [ %12, %9 ]
  %15 = xor i1 %14, true
  %16 = xor i1 %15, true
  %17 = zext i1 %16 to i32
  %18 = sext i32 %17 to i64
  %19 = call i64 @llvm.expect.i64(i64 %18, i64 0)
  %20 = icmp ne i64 %19, 0
  br i1 %20, label %21, label %22

21:                                               ; preds = %13
  store i8 1, ptr @H5FL_init_g, align 1, !tbaa !7
  br label %22

22:                                               ; preds = %21, %13
  %23 = load i8, ptr @H5FL_init_g, align 1, !tbaa !7, !range !9, !noundef !10
  %24 = trunc i8 %23 to i1
  br i1 %24, label %29, label %25

25:                                               ; preds = %22
  %26 = load i8, ptr @H5_libterm_g, align 1, !tbaa !7, !range !9, !noundef !10
  %27 = trunc i8 %26 to i1
  %28 = xor i1 %27, true
  br label %29

29:                                               ; preds = %25, %22
  %30 = phi i1 [ true, %22 ], [ %28, %25 ]
  %31 = xor i1 %30, true
  %32 = xor i1 %31, true
  %33 = zext i1 %32 to i32
  %34 = sext i32 %33 to i64
  %35 = call i64 @llvm.expect.i64(i64 %34, i64 1)
  %36 = icmp ne i64 %35, 0
  br i1 %36, label %37, label %133

37:                                               ; preds = %29
  %38 = call noalias ptr @H5FL_reg_calloc(ptr noundef @H5_H5FL_fac_head_t_reg_free_list)
  store ptr %38, ptr %4, align 8, !tbaa !122
  %39 = icmp eq ptr null, %38
  br i1 %39, label %40, label %59

40:                                               ; preds = %37
  br label %41

41:                                               ; preds = %40
  br label %42

42:                                               ; preds = %41
  br label %43

43:                                               ; preds = %42
  %44 = load i64, ptr @H5E_RESOURCE_g, align 8, !tbaa !11
  %45 = load i64, ptr @H5E_NOSPACE_g, align 8, !tbaa !11
  %46 = call i32 (ptr, ptr, i32, i64, i64, ptr, ...) @H5E_printf_stack(ptr noundef @.str.2, ptr noundef @__func__.H5FL_fac_init, i32 noundef 1707, i64 noundef %44, i64 noundef %45, ptr noundef @.str.11)
  br label %47

47:                                               ; preds = %43
  br label %48

48:                                               ; preds = %47
  store i8 1, ptr %6, align 1, !tbaa !7
  %49 = load i8, ptr %6, align 1, !tbaa !7, !range !9, !noundef !10
  %50 = trunc i8 %49 to i1
  %51 = zext i1 %50 to i8
  store i8 %51, ptr %6, align 1, !tbaa !7
  br label %52

52:                                               ; preds = %48
  br label %53

53:                                               ; preds = %52
  br label %54

54:                                               ; preds = %53
  store ptr null, ptr %5, align 8, !tbaa !122
  br label %116

55:                                               ; No predecessors!
  br label %56

56:                                               ; preds = %55
  br label %57

57:                                               ; preds = %56
  br label %58

58:                                               ; preds = %57
  br label %59

59:                                               ; preds = %58, %37
  %60 = load i64, ptr %2, align 8, !tbaa !11
  %61 = load ptr, ptr %4, align 8, !tbaa !122
  %62 = getelementptr inbounds nuw %struct.H5FL_fac_head_t, ptr %61, i32 0, i32 3
  store i64 %60, ptr %62, align 8, !tbaa !123
  %63 = call noalias ptr @H5FL_reg_malloc(ptr noundef @H5_H5FL_fac_gc_node_t_reg_free_list)
  store ptr %63, ptr %3, align 8, !tbaa !35
  %64 = icmp eq ptr null, %63
  br i1 %64, label %65, label %84

65:                                               ; preds = %59
  br label %66

66:                                               ; preds = %65
  br label %67

67:                                               ; preds = %66
  br label %68

68:                                               ; preds = %67
  %69 = load i64, ptr @H5E_RESOURCE_g, align 8, !tbaa !11
  %70 = load i64, ptr @H5E_NOSPACE_g, align 8, !tbaa !11
  %71 = call i32 (ptr, ptr, i32, i64, i64, ptr, ...) @H5E_printf_stack(ptr noundef @.str.2, ptr noundef @__func__.H5FL_fac_init, i32 noundef 1714, i64 noundef %69, i64 noundef %70, ptr noundef @.str.5)
  br label %72

72:                                               ; preds = %68
  br label %73

73:                                               ; preds = %72
  store i8 1, ptr %6, align 1, !tbaa !7
  %74 = load i8, ptr %6, align 1, !tbaa !7, !range !9, !noundef !10
  %75 = trunc i8 %74 to i1
  %76 = zext i1 %75 to i8
  store i8 %76, ptr %6, align 1, !tbaa !7
  br label %77

77:                                               ; preds = %73
  br label %78

78:                                               ; preds = %77
  br label %79

79:                                               ; preds = %78
  store ptr null, ptr %5, align 8, !tbaa !122
  br label %116

80:                                               ; No predecessors!
  br label %81

81:                                               ; preds = %80
  br label %82

82:                                               ; preds = %81
  br label %83

83:                                               ; preds = %82
  br label %84

84:                                               ; preds = %83, %59
  %85 = load ptr, ptr %4, align 8, !tbaa !122
  %86 = load ptr, ptr %3, align 8, !tbaa !35
  %87 = getelementptr inbounds nuw %struct.H5FL_fac_gc_node_t, ptr %86, i32 0, i32 0
  store ptr %85, ptr %87, align 8, !tbaa !36
  %88 = load ptr, ptr getelementptr inbounds nuw (%struct.H5FL_fac_gc_list_t, ptr @H5FL_fac_gc_head, i32 0, i32 1), align 8, !tbaa !29
  %89 = load ptr, ptr %3, align 8, !tbaa !35
  %90 = getelementptr inbounds nuw %struct.H5FL_fac_gc_node_t, ptr %89, i32 0, i32 1
  store ptr %88, ptr %90, align 8, !tbaa !32
  %91 = load ptr, ptr %3, align 8, !tbaa !35
  store ptr %91, ptr getelementptr inbounds nuw (%struct.H5FL_fac_gc_list_t, ptr @H5FL_fac_gc_head, i32 0, i32 1), align 8, !tbaa !29
  %92 = load ptr, ptr %3, align 8, !tbaa !35
  %93 = getelementptr inbounds nuw %struct.H5FL_fac_gc_node_t, ptr %92, i32 0, i32 1
  %94 = load ptr, ptr %93, align 8, !tbaa !32
  %95 = icmp ne ptr %94, null
  br i1 %95, label %96, label %104

96:                                               ; preds = %84
  %97 = load ptr, ptr %3, align 8, !tbaa !35
  %98 = load ptr, ptr %3, align 8, !tbaa !35
  %99 = getelementptr inbounds nuw %struct.H5FL_fac_gc_node_t, ptr %98, i32 0, i32 1
  %100 = load ptr, ptr %99, align 8, !tbaa !32
  %101 = getelementptr inbounds nuw %struct.H5FL_fac_gc_node_t, ptr %100, i32 0, i32 0
  %102 = load ptr, ptr %101, align 8, !tbaa !36
  %103 = getelementptr inbounds nuw %struct.H5FL_fac_head_t, ptr %102, i32 0, i32 5
  store ptr %97, ptr %103, align 8, !tbaa !124
  br label %104

104:                                              ; preds = %96, %84
  %105 = load ptr, ptr %4, align 8, !tbaa !122
  %106 = getelementptr inbounds nuw %struct.H5FL_fac_head_t, ptr %105, i32 0, i32 3
  %107 = load i64, ptr %106, align 8, !tbaa !123
  %108 = icmp ult i64 %107, 8
  br i1 %108, label %109, label %112

109:                                              ; preds = %104
  %110 = load ptr, ptr %4, align 8, !tbaa !122
  %111 = getelementptr inbounds nuw %struct.H5FL_fac_head_t, ptr %110, i32 0, i32 3
  store i64 8, ptr %111, align 8, !tbaa !123
  br label %112

112:                                              ; preds = %109, %104
  %113 = load ptr, ptr %4, align 8, !tbaa !122
  %114 = getelementptr inbounds nuw %struct.H5FL_fac_head_t, ptr %113, i32 0, i32 0
  store i8 1, ptr %114, align 8, !tbaa !37
  %115 = load ptr, ptr %4, align 8, !tbaa !122
  store ptr %115, ptr %5, align 8, !tbaa !122
  br label %116

116:                                              ; preds = %112, %79, %54
  %117 = load ptr, ptr %5, align 8, !tbaa !122
  %118 = icmp ne ptr %117, null
  br i1 %118, label %132, label %119

119:                                              ; preds = %116
  %120 = load ptr, ptr %4, align 8, !tbaa !122
  %121 = icmp ne ptr %120, null
  br i1 %121, label %122, label %125

122:                                              ; preds = %119
  %123 = load ptr, ptr %4, align 8, !tbaa !122
  %124 = call ptr @H5FL_reg_free(ptr noundef @H5_H5FL_fac_head_t_reg_free_list, ptr noundef %123)
  store ptr %124, ptr %4, align 8, !tbaa !122
  br label %125

125:                                              ; preds = %122, %119
  %126 = load ptr, ptr %3, align 8, !tbaa !35
  %127 = icmp ne ptr %126, null
  br i1 %127, label %128, label %131

128:                                              ; preds = %125
  %129 = load ptr, ptr %3, align 8, !tbaa !35
  %130 = call ptr @H5FL_reg_free(ptr noundef @H5_H5FL_fac_gc_node_t_reg_free_list, ptr noundef %129)
  store ptr %130, ptr %3, align 8, !tbaa !35
  br label %131

131:                                              ; preds = %128, %125
  br label %132

132:                                              ; preds = %131, %116
  br label %133

133:                                              ; preds = %132, %29
  %134 = load ptr, ptr %5, align 8, !tbaa !122
  call void @llvm.lifetime.end.p0(i64 1, ptr %6) #9
  call void @llvm.lifetime.end.p0(i64 8, ptr %5) #9
  call void @llvm.lifetime.end.p0(i64 8, ptr %4) #9
  call void @llvm.lifetime.end.p0(i64 8, ptr %3) #9
  ret ptr %134
}