; Function Attrs: nounwind uwtable
define ptr @H5FL_fac_init(i64 noundef %0) local_unnamed_addr #0 {
  %2 = load i8, ptr @H5FL_init_g, align 1, !tbaa !3, !range !7, !noundef !8
  %3 = trunc nuw i8 %2 to i1
  %4 = load i8, ptr @H5_libterm_g, align 1, !range !7
  %5 = trunc nuw i8 %4 to i1
  %6 = select i1 %3, i1 true, i1 %5
  br i1 %6, label %7, label %.sink.split, !prof !15

7:                                                ; preds = %1
  %8 = xor i1 %5, true
  %9 = select i1 %3, i1 true, i1 %8
  br i1 %9, label %10, label %41, !prof !87

10:                                               ; preds = %7
  %11 = select i1 %3, i1 true, i1 %5
  br i1 %11, label %12, label %.sink.split, !prof !87

.sink.split:                                      ; preds = %10, %1
  store i8 1, ptr @H5FL_init_g, align 1, !tbaa !3
  br label %12

12:                                               ; preds = %.sink.split, %10
  %13 = tail call noalias ptr @H5FL_reg_malloc(ptr noundef nonnull @H5_H5FL_fac_head_t_reg_free_list)
  %14 = icmp eq ptr %13, null
  br i1 %14, label %.thread39, label %21

.thread39:                                        ; preds = %12
  %15 = load i64, ptr @H5E_RESOURCE_g, align 8, !tbaa !86
  %16 = load i64, ptr @H5E_NOSPACE_g, align 8, !tbaa !86
  %17 = tail call i32 (ptr, ptr, i32, i64, i64, ptr, ...) @H5E_printf_stack(ptr noundef nonnull @.str.2, ptr noundef nonnull @__func__.H5FL_reg_calloc, i32 noundef 396, i64 noundef %15, i64 noundef %16, ptr noundef nonnull @.str.5) #10
  %18 = load i64, ptr @H5E_RESOURCE_g, align 8, !tbaa !86
  %19 = load i64, ptr @H5E_NOSPACE_g, align 8, !tbaa !86
  %20 = tail call i32 (ptr, ptr, i32, i64, i64, ptr, ...) @H5E_printf_stack(ptr noundef nonnull @.str.2, ptr noundef nonnull @__func__.H5FL_fac_init, i32 noundef 1707, i64 noundef %18, i64 noundef %19, ptr noundef nonnull @.str.11) #10
  br label %41

21:                                               ; preds = %12
  %22 = load i64, ptr getelementptr inbounds nuw (i8, ptr @H5_H5FL_fac_head_t_reg_free_list, i64 24), align 8, !tbaa !72
  tail call void @llvm.memset.p0.i64(ptr nonnull align 1 %13, i8 0, i64 %22, i1 false)
  %23 = getelementptr inbounds nuw i8, ptr %13, i64 16
  store i64 %0, ptr %23, align 8, !tbaa !82
  %24 = tail call noalias ptr @H5FL_reg_malloc(ptr noundef nonnull @H5_H5FL_fac_gc_node_t_reg_free_list)
  %25 = icmp eq ptr %24, null
  br i1 %25, label %36, label %26

26:                                               ; preds = %21
  store ptr %13, ptr %24, align 8, !tbaa !32
  %27 = load ptr, ptr @H5FL_fac_gc_head.1, align 8, !tbaa !36
  %28 = getelementptr inbounds nuw i8, ptr %24, i64 8
  store ptr %27, ptr %28, align 8, !tbaa !28
  store ptr %24, ptr @H5FL_fac_gc_head.1, align 8, !tbaa !36
  %.not = icmp eq ptr %27, null
  br i1 %.not, label %32, label %29

29:                                               ; preds = %26
  %30 = load ptr, ptr %27, align 8, !tbaa !32
  %31 = getelementptr inbounds nuw i8, ptr %30, i64 32
  store ptr %24, ptr %31, align 8, !tbaa !123
  br label %32

32:                                               ; preds = %29, %26
  %33 = icmp ult i64 %0, 8
  br i1 %33, label %34, label %35

34:                                               ; preds = %32
  store i64 8, ptr %23, align 8, !tbaa !82
  br label %35

35:                                               ; preds = %32, %34
  store i8 1, ptr %13, align 8, !tbaa !33
  br label %41

36:                                               ; preds = %21
  %37 = load i64, ptr @H5E_RESOURCE_g, align 8, !tbaa !86
  %38 = load i64, ptr @H5E_NOSPACE_g, align 8, !tbaa !86
  %39 = tail call i32 (ptr, ptr, i32, i64, i64, ptr, ...) @H5E_printf_stack(ptr noundef nonnull @.str.2, ptr noundef nonnull @__func__.H5FL_fac_init, i32 noundef 1714, i64 noundef %37, i64 noundef %38, ptr noundef nonnull @.str.5) #10
  %40 = tail call ptr @H5FL_reg_free(ptr noundef nonnull @H5_H5FL_fac_head_t_reg_free_list, ptr noundef nonnull %13)
  br label %41

41:                                               ; preds = %36, %.thread39, %35, %7
  %.0 = phi ptr [ %13, %35 ], [ null, %7 ], [ null, %.thread39 ], [ null, %36 ]
  ret ptr %.0
}